target datalayout = "e-m:e-p270:32:32-p271:32:32-p272:64:64-i64:64-i128:128-f80:128-n8:16:32:64-S128"
target triple = "x86_64-pc-linux-gnu"

%struct.dtlink_s_ = type { ptr, %union.anon.1 }
%union.anon.1 = type { ptr }
%struct.Agrec_s = type { ptr, ptr }
%struct.gvid_t = type { %struct.Agrec_s, i32 }
%struct.dt_s_ = type { ptr, ptr, %struct.Dtdata_t, ptr, i32, ptr, ptr, ptr }
%struct.Dtdata_t = type { i32, ptr, %union.anon.2, i32, i32, i32 }
%union.anon.2 = type { ptr }
%struct.intm = type { %struct.dtlink_s_, ptr, i32 }

@.str.9 = private unnamed_addr constant [3 x i8] c"id\00", align 1
@.str.18 = private unnamed_addr constant [8 x i8] c"cluster\00", align 1
@.str.19 = private unnamed_addr constant [29 x i8] c"Duplicate cluster name \22%s\22\0A\00", align 1
@stderr = external global ptr, align 8
@.str.20 = private unnamed_addr constant [58 x i8] c"integer overflow when trying to allocate %zu * %zu bytes\0A\00", align 1
@.str.21 = private unnamed_addr constant [49 x i8] c"out of memory when trying to allocate %zu bytes\0A\00", align 1

; Function Attrs: inlinehint nounwind uwtable
define internal ptr @gv_calloc(i64 noundef %0, i64 noundef %1) #4 {
  %3 = alloca i64, align 8
  %4 = alloca i64, align 8
  %5 = alloca ptr, align 8
  store i64 %0, ptr %3, align 8, !tbaa !132
  store i64 %1, ptr %4, align 8, !tbaa !132
  %6 = load i64, ptr %3, align 8, !tbaa !132
  %7 = icmp ugt i64 %6, 0
  br i1 %7, label %8, label %18

8:                                                ; preds = %2
  %9 = load i64, ptr %3, align 8, !tbaa !132
  %10 = udiv i64 -1, %9
  %11 = load i64, ptr %4, align 8, !tbaa !132
  %12 = icmp ult i64 %10, %11
  br i1 %12, label %13, label %18

13:                                               ; preds = %8
  %14 = load ptr, ptr @stderr, align 8, !tbaa !140
  %15 = load i64, ptr %3, align 8, !tbaa !132
  %16 = load i64, ptr %4, align 8, !tbaa !132
  %17 = call i32 (ptr, ptr, ...) @fprintf(ptr noundef %14, ptr noundef @.str.20, i64 noundef %15, i64 noundef %16) #9
  call void @graphviz_exit(i32 noundef 1) #11
  unreachable

18:                                               ; preds = %8, %2
  call void @llvm.lifetime.start.p0(i64 8, ptr %5) #9
  %19 = load i64, ptr %3, align 8, !tbaa !132
  %20 = load i64, ptr %4, align 8, !tbaa !132
  %21 = call noalias ptr @calloc(i64 noundef %19, i64 noundef %20) #12
  store ptr %21, ptr %5, align 8, !tbaa !100
  %22 = load i64, ptr %3, align 8, !tbaa !132
  %23 = icmp ugt i64 %22, 0
  br i1 %23, label %24, label %36

24:                                               ; preds = %18
  %25 = load i64, ptr %4, align 8, !tbaa !132
  %26 = icmp ugt i64 %25, 0
  br i1 %26, label %27, label %36

27:                                               ; preds = %24
  %28 = load ptr, ptr %5, align 8, !tbaa !100
  %29 = icmp eq ptr %28, null
  br i1 %29, label %30, label %36

30:                                               ; preds = %27
  %31 = load ptr, ptr @stderr, align 8, !tbaa !140
  %32 = load i64, ptr %3, align 8, !tbaa !132
  %33 = load i64, ptr %4, align 8, !tbaa !132
  %34 = mul i64 %32, %33
  %35 = call i32 (ptr, ptr, ...) @fprintf(ptr noundef %31, ptr noundef @.str.21, i64 noundef %34) #9
  call void @graphviz_exit(i32 noundef 1) #11
  unreachable

36:                                               ; preds = %27, %24, %18
  %37 = load ptr, ptr %5, align 8, !tbaa !100
  call void @llvm.lifetime.end.p0(i64 8, ptr %5) #9
  ret ptr %37
}

; Function Attrs: inlinehint nounwind uwtable
define internal ptr @gv_strdup(ptr noundef %0) #4 {
  %2 = alloca ptr, align 8
  %3 = alloca ptr, align 8
  store ptr %0, ptr %2, align 8, !tbaa !114
  call void @llvm.lifetime.start.p0(i64 8, ptr %3) #9
  %4 = load ptr, ptr %2, align 8, !tbaa !114
  %5 = call noalias ptr @strdup(ptr noundef %4) #9
  store ptr %5, ptr %3, align 8, !tbaa !114
  %6 = load ptr, ptr %3, align 8, !tbaa !114
  %7 = icmp eq ptr %6, null
  br i1 %7, label %8, label %14

8:                                                ; preds = %1
  %9 = load ptr, ptr @stderr, align 8, !tbaa !140
  %10 = load ptr, ptr %2, align 8, !tbaa !114
  %11 = call i64 @strlen(ptr noundef %10) #10
  %12 = add i64 %11, 1
  %13 = call i32 (ptr, ptr, ...) @fprintf(ptr noundef %9, ptr noundef @.str.21, i64 noundef %12) #9
  call void @graphviz_exit(i32 noundef 1) #11
  unreachable

14:                                               ; preds = %1
  %15 = load ptr, ptr %3, align 8, !tbaa !114
  call void @llvm.lifetime.end.p0(i64 8, ptr %3) #9
  ret ptr %15
}

; Function Attrs: inlinehint nounwind uwtable
define internal ptr @gv_alloc(i64 noundef %0) #4 {
  %2 = alloca i64, align 8
  store i64 %0, ptr %2, align 8, !tbaa !132
  %3 = load i64, ptr %2, align 8, !tbaa !132
  %4 = call ptr @gv_calloc(i64 noundef 1, i64 noundef %3)
  ret ptr %4
}

; Function Attrs: inlinehint nounwind uwtable
define internal zeroext i1 @startswith(ptr noundef %0, ptr noundef %1) #4 {
  %3 = alloca ptr, align 8
  %4 = alloca ptr, align 8
  store ptr %0, ptr %3, align 8, !tbaa !114
  store ptr %1, ptr %4, align 8, !tbaa !114
  %5 = load ptr, ptr %3, align 8, !tbaa !114
  %6 = load ptr, ptr %4, align 8, !tbaa !114
  %7 = load ptr, ptr %4, align 8, !tbaa !114
  %8 = call i64 @strlen(ptr noundef %7) #10
  %9 = call i32 @strncmp(ptr noundef %5, ptr noundef %6, i64 noundef %8) #10
  %10 = icmp eq i32 %9, 0
  ret i1 %10
}

; Function Attrs: nounwind uwtable
define internal void @insert(ptr noundef %0, ptr noundef %1, i32 noundef %2) #0 {
  %4 = alloca ptr, align 8
  %5 = alloca ptr, align 8
  %6 = alloca i32, align 4
  %7 = alloca ptr, align 8
  %8 = alloca i32, align 4
  store ptr %0, ptr %4, align 8, !tbaa !102
  store ptr %1, ptr %5, align 8, !tbaa !114
  store i32 %2, ptr %6, align 4, !tbaa !101
  call void @llvm.lifetime.start.p0(i64 8, ptr %7) #9
  %9 = load ptr, ptr %4, align 8, !tbaa !102
  %10 = getelementptr inbounds nuw %struct.dt_s_, ptr %9, i32 0, i32 0
  %11 = load ptr, ptr %10, align 8, !tbaa !115
  %12 = load ptr, ptr %4, align 8, !tbaa !102
  %13 = load ptr, ptr %5, align 8, !tbaa !114
  %14 = call ptr %11(ptr noundef %12, ptr noundef %13, i32 noundef 512)
  store ptr %14, ptr %7, align 8, !tbaa !100
  %15 = load ptr, ptr %7, align 8, !tbaa !100
  %16 = icmp ne ptr %15, null
  br i1 %16, label %17, label %26

17:                                               ; preds = %3
  %18 = load ptr, ptr %7, align 8, !tbaa !100
  %19 = getelementptr inbounds nuw %struct.intm, ptr %18, i32 0, i32 2
  %20 = load i32, ptr %19, align 8, !tbaa !119
  %21 = load i32, ptr %6, align 4, !tbaa !101
  %22 = icmp ne i32 %20, %21
  br i1 %22, label %23, label %25

23:                                               ; preds = %17
  %24 = load ptr, ptr %5, align 8, !tbaa !114
  call void (ptr, ...) @agwarningf(ptr noundef @.str.19, ptr noundef %24)
  br label %25

25:                                               ; preds = %23, %17
  store i32 1, ptr %8, align 4
  br label %41

26:                                               ; preds = %3
  %27 = call ptr @gv_alloc(i64 noundef 32)
  store ptr %27, ptr %7, align 8, !tbaa !100
  %28 = load ptr, ptr %5, align 8, !tbaa !114
  %29 = call ptr @gv_strdup(ptr noundef %28)
  %30 = load ptr, ptr %7, align 8, !tbaa !100
  %31 = getelementptr inbounds nuw %struct.intm, ptr %30, i32 0, i32 1
  store ptr %29, ptr %31, align 8, !tbaa !139
  %32 = load i32, ptr %6, align 4, !tbaa !101
  %33 = load ptr, ptr %7, align 8, !tbaa !100
  %34 = getelementptr inbounds nuw %struct.intm, ptr %33, i32 0, i32 2
  store i32 %32, ptr %34, align 8, !tbaa !119
  %35 = load ptr, ptr %4, align 8, !tbaa !102
  %36 = getelementptr inbounds nuw %struct.dt_s_, ptr %35, i32 0, i32 0
  %37 = load ptr, ptr %36, align 8, !tbaa !115
  %38 = load ptr, ptr %4, align 8, !tbaa !102
  %39 = load ptr, ptr %7, align 8, !tbaa !100
  %40 = call ptr %37(ptr noundef %38, ptr noundef %39, i32 noundef 1)
  store i32 0, ptr %8, align 4
  br label %41

41:                                               ; preds = %26, %25
  call void @llvm.lifetime.end.p0(i64 8, ptr %7) #9
  %42 = load i32, ptr %8, align 4
  switch i32 %42, label %44 [
    i32 0, label %43
    i32 1, label %43
  ]

43:                                               ; preds = %41, %41
  ret void

44:                                               ; preds = %41
  unreachable
}

; Function Attrs: nounwind uwtable
define internal zeroext i1 @IS_CLUSTER(ptr noundef %0) #0 {
  %2 = alloca ptr, align 8
  store ptr %0, ptr %2, align 8, !tbaa !35
  %3 = load ptr, ptr %2, align 8, !tbaa !35
  %4 = call ptr @agnameof(ptr noundef %3)
  %5 = call zeroext i1 @startswith(ptr noundef %4, ptr noundef @.str.18)
  ret i1 %5
}

; Function Attrs: nounwind uwtable
define internal i32 @label_subgs(ptr noundef %0, i32 noundef %1, ptr noundef %2) #0 {
  %4 = alloca ptr, align 8
  %5 = alloca i32, align 4
  %6 = alloca ptr, align 8
  %7 = alloca ptr, align 8
  store ptr %0, ptr %4, align 8, !tbaa !35
  store i32 %1, ptr %5, align 4, !tbaa !101
  store ptr %2, ptr %6, align 8, !tbaa !102
  call void @llvm.lifetime.start.p0(i64 8, ptr %7) #9
  %8 = load ptr, ptr %4, align 8, !tbaa !35
  %9 = load ptr, ptr %4, align 8, !tbaa !35
  %10 = call ptr @agroot(ptr noundef %9)
  %11 = icmp ne ptr %8, %10
  br i1 %11, label %12, label %29

12:                                               ; preds = %3
  %13 = load i32, ptr %5, align 4, !tbaa !101
  %14 = add nsw i32 %13, 1
  store i32 %14, ptr %5, align 4, !tbaa !101
  %15 = load ptr, ptr %4, align 8, !tbaa !35
  %16 = call ptr @aggetrec(ptr noundef %15, ptr noundef @.str.9, i32 noundef 0)
  %17 = getelementptr inbounds nuw %struct.gvid_t, ptr %16, i32 0, i32 1
  store i32 %13, ptr %17, align 8, !tbaa !109
  %18 = load ptr, ptr %4, align 8, !tbaa !35
  %19 = call zeroext i1 @IS_CLUSTER(ptr noundef %18)
  br i1 %19, label %20, label %28

20:                                               ; preds = %12
  %21 = load ptr, ptr %6, align 8, !tbaa !102
  %22 = load ptr, ptr %4, align 8, !tbaa !35
  %23 = call ptr @agnameof(ptr noundef %22)
  %24 = load ptr, ptr %4, align 8, !tbaa !35
  %25 = call ptr @aggetrec(ptr noundef %24, ptr noundef @.str.9, i32 noundef 0)
  %26 = getelementptr inbounds nuw %struct.gvid_t, ptr %25, i32 0, i32 1
  %27 = load i32, ptr %26, align 8, !tbaa !109
  call void @insert(ptr noundef %21, ptr noundef %23, i32 noundef %27)
  br label %28

28:                                               ; preds = %20, %12
  br label %29

29:                                               ; preds = %28, %3
  %30 = load ptr, ptr %4, align 8, !tbaa !35
  %31 = call ptr @agfstsubg(ptr noundef %30)
  store ptr %31, ptr %7, align 8, !tbaa !35
  br label %32

32:                                               ; preds = %40, %29
  %33 = load ptr, ptr %7, align 8, !tbaa !35
  %34 = icmp ne ptr %33, null
  br i1 %34, label %35, label %43

35:                                               ; preds = %32
  %36 = load ptr, ptr %7, align 8, !tbaa !35
  %37 = load i32, ptr %5, align 4, !tbaa !101
  %38 = load ptr, ptr %6, align 8, !tbaa !102
  %39 = call i32 @label_subgs(ptr noundef %36, i32 noundef %37, ptr noundef %38)
  store i32 %39, ptr %5, align 4, !tbaa !101
  br label %40

40:                                               ; preds = %35
  %41 = load ptr, ptr %7, align 8, !tbaa !35
  %42 = call ptr @agnxtsubg(ptr noundef %41)
  store ptr %42, ptr %7, align 8, !tbaa !35
  br label %32, !llvm.loop !113

43:                                               ; preds = %32
  %44 = load i32, ptr %5, align 4, !tbaa !101
  call void @llvm.lifetime.end.p0(i64 8, ptr %7) #9
  ret i32 %44
}