; Function Attrs: nounwind uwtable
define internal fastcc i32 @label_subgs(ptr noundef %0, i32 noundef %1, ptr noundef %2) unnamed_addr #0 {
  %4 = tail call ptr @agroot(ptr noundef %0) #15
  %.not = icmp eq ptr %0, %4
  br i1 %.not, label %insert.exit, label %5

5:                                                ; preds = %3
  %6 = add nsw i32 %1, 1
  %7 = tail call ptr @aggetrec(ptr noundef %0, ptr noundef nonnull @.str.9, i32 noundef 0) #15
  %8 = getelementptr inbounds nuw i8, ptr %7, i64 16
  store i32 %1, ptr %8, align 8, !tbaa !107
  %9 = tail call ptr @agnameof(ptr noundef %0) #15
  %10 = tail call i32 @strncmp(ptr noundef nonnull readonly dereferenceable(1) %9, ptr noundef nonnull dereferenceable(8) @.str.18, i64 noundef 7) #19
  %11 = icmp eq i32 %10, 0
  br i1 %11, label %12, label %insert.exit

12:                                               ; preds = %5
  %13 = tail call ptr @agnameof(ptr noundef %0) #15
  %14 = tail call ptr @aggetrec(ptr noundef %0, ptr noundef nonnull @.str.9, i32 noundef 0) #15
  %15 = getelementptr inbounds nuw i8, ptr %14, i64 16
  %16 = load i32, ptr %15, align 8, !tbaa !107
  %17 = load ptr, ptr %2, align 8, !tbaa !101
  %18 = tail call ptr %17(ptr noundef nonnull %2, ptr noundef %13, i32 noundef 512) #15
  %.not.i = icmp eq ptr %18, null
  br i1 %.not.i, label %23, label %19

19:                                               ; preds = %12
  %20 = getelementptr inbounds nuw i8, ptr %18, i64 24
  %21 = load i32, ptr %20, align 8, !tbaa !105
  %.not13.i = icmp eq i32 %21, %16
  br i1 %.not13.i, label %insert.exit, label %22

22:                                               ; preds = %19
  tail call void (ptr, ...) @agwarningf(ptr noundef nonnull @.str.19, ptr noundef %13) #15
  br label %insert.exit

23:                                               ; preds = %12
  %24 = tail call noalias dereferenceable_or_null(32) ptr @calloc(i64 noundef 1, i64 noundef 32) #18
  %25 = icmp eq ptr %24, null
  br i1 %25, label %26, label %gv_alloc.exit.i

26:                                               ; preds = %23
  %27 = load ptr, ptr @stderr, align 8, !tbaa !117
  %28 = tail call i32 (ptr, ptr, ...) @fprintf(ptr noundef %27, ptr noundef nonnull @.str.21, i64 noundef 32) #16
  tail call fastcc void @graphviz_exit() #17
  unreachable

gv_alloc.exit.i:                                  ; preds = %23
  %29 = tail call noalias ptr @strdup(ptr noundef readonly %13) #15
  %30 = icmp eq ptr %29, null
  br i1 %30, label %31, label %gv_strdup.exit.i

31:                                               ; preds = %gv_alloc.exit.i
  %32 = load ptr, ptr @stderr, align 8, !tbaa !117
  %33 = tail call i64 @strlen(ptr noundef nonnull readonly dereferenceable(1) %13) #19
  %34 = add i64 %33, 1
  %35 = tail call i32 (ptr, ptr, ...) @fprintf(ptr noundef %32, ptr noundef nonnull @.str.21, i64 noundef %34) #16
  tail call fastcc void @graphviz_exit() #17
  unreachable

gv_strdup.exit.i:                                 ; preds = %gv_alloc.exit.i
  %36 = getelementptr inbounds nuw i8, ptr %24, i64 16
  store ptr %29, ptr %36, align 8, !tbaa !124
  %37 = getelementptr inbounds nuw i8, ptr %24, i64 24
  store i32 %16, ptr %37, align 8, !tbaa !105
  %38 = load ptr, ptr %2, align 8, !tbaa !101
  %39 = tail call ptr %38(ptr noundef nonnull %2, ptr noundef nonnull %24, i32 noundef 1) #15
  br label %insert.exit

insert.exit:                                      ; preds = %gv_strdup.exit.i, %22, %19, %5, %3
  %.014 = phi i32 [ %6, %5 ], [ %1, %3 ], [ %6, %19 ], [ %6, %22 ], [ %6, %gv_strdup.exit.i ]
  %40 = tail call ptr @agfstsubg(ptr noundef %0) #15
  %.not1617 = icmp eq ptr %40, null
  br i1 %.not1617, label %._crit_edge, label %.lr.ph

.lr.ph:                                           ; preds = %insert.exit, %.lr.ph
  %.019 = phi ptr [ %42, %.lr.ph ], [ %40, %insert.exit ]
  %.118 = phi i32 [ %41, %.lr.ph ], [ %.014, %insert.exit ]
  %41 = tail call fastcc i32 @label_subgs(ptr noundef nonnull %.019, i32 noundef %.118, ptr noundef %2)
  %42 = tail call ptr @agnxtsubg(ptr noundef nonnull %.019) #15
  %.not16 = icmp eq ptr %42, null
  br i1 %.not16, label %._crit_edge, label %.lr.ph, !llvm.loop !125

._crit_edge:                                      ; preds = %.lr.ph, %insert.exit
  %.1.lcssa = phi i32 [ %.014, %insert.exit ], [ %41, %.lr.ph ]
  ret i32 %.1.lcssa
}